; Function Attrs: nounwind uwtable
define void @ASN1_STRING_free(ptr noundef %0) local_unnamed_addr #1 {
  %2 = icmp eq ptr %0, null
  br i1 %2, label %ossl_asn1_string_embed_free.exit, label %3

3:                                                ; preds = %1
  %4 = getelementptr inbounds nuw i8, ptr %0, i64 16
  %5 = load i64, ptr %4, align 8, !tbaa !22
  %6 = and i64 %5, 16
  %.not.i = icmp eq i64 %6, 0
  br i1 %.not.i, label %7, label %10

7:                                                ; preds = %3
  %8 = getelementptr inbounds nuw i8, ptr %0, i64 8
  %9 = load ptr, ptr %8, align 8, !tbaa !25
  tail call void @CRYPTO_free(ptr noundef %9, ptr noundef nonnull @.str, i32 noundef 367) #13
  br label %10

10:                                               ; preds = %7, %3
  %11 = and i64 %5, 128
  %12 = icmp eq i64 %11, 0
  br i1 %12, label %13, label %ossl_asn1_string_embed_free.exit

13:                                               ; preds = %10
  tail call void @CRYPTO_free(ptr noundef nonnull %0, ptr noundef nonnull @.str, i32 noundef 369) #13
  br label %ossl_asn1_string_embed_free.exit

ossl_asn1_string_embed_free.exit:                 ; preds = %13, %10, %1
  ret void
}